target datalayout = "e-m:e-p270:32:32-p271:32:32-p272:64:64-i64:64-i128:128-f80:128-n8:16:32:64-S128"
target triple = "x86_64-pc-linux-gnu"

%struct.TupleDescData = type { i32, i32, i32, i32, ptr, [0 x %struct.CompactAttribute] }
%struct.CompactAttribute = type { i32, i16, i8, i8, i8, i8, i8, i8, i8 }
%struct.FormData_pg_attribute = type { i32, %struct.nameData, i32, i16, i16, i32, i16, i8, i8, i8, i8, i8, i8, i8, i8, i8, i8, i8, i16, i32 }
%struct.nameData = type { [64 x i8] }

@SPI_result = dso_local global i32 0, align 4

; Function Attrs: inlinehint nounwind uwtable
define internal ptr @TupleDescAttr(ptr noundef %0, i32 noundef %1) #4 {
  %3 = alloca ptr, align 8
  %4 = alloca i32, align 4
  %5 = alloca ptr, align 8
  store ptr %0, ptr %3, align 8
  store i32 %1, ptr %4, align 4
  call void @llvm.lifetime.start.p0(i64 8, ptr %5) #9
  %6 = load ptr, ptr %3, align 8
  %7 = load ptr, ptr %3, align 8
  %8 = getelementptr inbounds nuw %struct.TupleDescData, ptr %7, i32 0, i32 0
  %9 = load i32, ptr %8, align 8
  %10 = sext i32 %9 to i64
  %11 = mul i64 %10, 16
  %12 = add i64 24, %11
  %13 = getelementptr inbounds nuw i8, ptr %6, i64 %12
  store ptr %13, ptr %5, align 8
  %14 = load ptr, ptr %5, align 8
  %15 = load i32, ptr %4, align 4
  %16 = sext i32 %15 to i64
  %17 = getelementptr inbounds %struct.FormData_pg_attribute, ptr %14, i64 %16
  call void @llvm.lifetime.end.p0(i64 8, ptr %5) #9
  ret ptr %17
}

; Function Attrs: nounwind uwtable
define dso_local ptr @SPI_getvalue(ptr noundef %0, ptr noundef %1, i32 noundef %2) #0 {
  %4 = alloca ptr, align 8
  %5 = alloca ptr, align 8
  %6 = alloca ptr, align 8
  %7 = alloca i32, align 4
  %8 = alloca i64, align 8
  %9 = alloca i8, align 1
  %10 = alloca i32, align 4
  %11 = alloca i32, align 4
  %12 = alloca i8, align 1
  %13 = alloca i32, align 4
  store ptr %0, ptr %5, align 8
  store ptr %1, ptr %6, align 8
  store i32 %2, ptr %7, align 4
  call void @llvm.lifetime.start.p0(i64 8, ptr %8) #9
  call void @llvm.lifetime.start.p0(i64 1, ptr %9) #9
  call void @llvm.lifetime.start.p0(i64 4, ptr %10) #9
  call void @llvm.lifetime.start.p0(i64 4, ptr %11) #9
  call void @llvm.lifetime.start.p0(i64 1, ptr %12) #9
  store i32 0, ptr @SPI_result, align 4
  %14 = load i32, ptr %7, align 4
  %15 = load ptr, ptr %6, align 8
  %16 = getelementptr inbounds nuw %struct.TupleDescData, ptr %15, i32 0, i32 0
  %17 = load i32, ptr %16, align 8
  %18 = icmp sgt i32 %14, %17
  br i1 %18, label %25, label %19

19:                                               ; preds = %3
  %20 = load i32, ptr %7, align 4
  %21 = icmp eq i32 %20, 0
  br i1 %21, label %25, label %22

22:                                               ; preds = %19
  %23 = load i32, ptr %7, align 4
  %24 = icmp sle i32 %23, -7
  br i1 %24, label %25, label %26

25:                                               ; preds = %22, %19, %3
  store i32 -9, ptr @SPI_result, align 4
  store ptr null, ptr %4, align 8
  store i32 1, ptr %13, align 4
  br label %55

26:                                               ; preds = %22
  %27 = load ptr, ptr %5, align 8
  %28 = load i32, ptr %7, align 4
  %29 = load ptr, ptr %6, align 8
  %30 = call i64 @heap_getattr(ptr noundef %27, i32 noundef %28, ptr noundef %29, ptr noundef %9)
  store i64 %30, ptr %8, align 8
  %31 = load i8, ptr %9, align 1, !range !4, !noundef !5
  %32 = trunc i8 %31 to i1
  br i1 %32, label %33, label %34

33:                                               ; preds = %26
  store ptr null, ptr %4, align 8
  store i32 1, ptr %13, align 4
  br label %55

34:                                               ; preds = %26
  %35 = load i32, ptr %7, align 4
  %36 = icmp sgt i32 %35, 0
  br i1 %36, label %37, label %44

37:                                               ; preds = %34
  %38 = load ptr, ptr %6, align 8
  %39 = load i32, ptr %7, align 4
  %40 = sub i32 %39, 1
  %41 = call ptr @TupleDescAttr(ptr noundef %38, i32 noundef %40)
  %42 = getelementptr inbounds nuw %struct.FormData_pg_attribute, ptr %41, i32 0, i32 2
  %43 = load i32, ptr %42, align 4
  store i32 %43, ptr %10, align 4
  br label %50

44:                                               ; preds = %34
  %45 = load i32, ptr %7, align 4
  %46 = trunc i32 %45 to i16
  %47 = call ptr @SystemAttributeDefinition(i16 noundef signext %46)
  %48 = getelementptr inbounds nuw %struct.FormData_pg_attribute, ptr %47, i32 0, i32 2
  %49 = load i32, ptr %48, align 4
  store i32 %49, ptr %10, align 4
  br label %50

50:                                               ; preds = %44, %37
  %51 = load i32, ptr %10, align 4
  call void @getTypeOutputInfo(i32 noundef %51, ptr noundef %11, ptr noundef %12)
  %52 = load i32, ptr %11, align 4
  %53 = load i64, ptr %8, align 8
  %54 = call ptr @OidOutputFunctionCall(i32 noundef %52, i64 noundef %53)
  store ptr %54, ptr %4, align 8
  store i32 1, ptr %13, align 4
  br label %55

55:                                               ; preds = %50, %33, %25
  call void @llvm.lifetime.end.p0(i64 1, ptr %12) #9
  call void @llvm.lifetime.end.p0(i64 4, ptr %11) #9
  call void @llvm.lifetime.end.p0(i64 4, ptr %10) #9
  call void @llvm.lifetime.end.p0(i64 1, ptr %9) #9
  call void @llvm.lifetime.end.p0(i64 8, ptr %8) #9
  %56 = load ptr, ptr %4, align 8
  ret ptr %56
}