; Function Attrs: nounwind uwtable
define dso_local ptr @SPI_getvalue(ptr noundef %0, ptr noundef %1, i32 noundef %2) local_unnamed_addr #0 {
  %4 = alloca i8, align 1
  %5 = alloca i32, align 4
  %6 = alloca i8, align 1
  call void @llvm.lifetime.start.p0(i64 1, ptr nonnull %4) #15
  call void @llvm.lifetime.start.p0(i64 4, ptr nonnull %5) #15
  call void @llvm.lifetime.start.p0(i64 1, ptr nonnull %6) #15
  store i32 0, ptr @SPI_result, align 4
  %7 = load i32, ptr %1, align 8
  %8 = icmp sgt i32 %2, %7
  %9 = icmp eq i32 %2, 0
  %or.cond = or i1 %9, %8
  %10 = icmp slt i32 %2, -6
  %or.cond3 = or i1 %10, %or.cond
  br i1 %or.cond3, label %11, label %12

11:                                               ; preds = %3
  store i32 -9, ptr @SPI_result, align 4
  br label %33

12:                                               ; preds = %3
  %13 = call fastcc i64 @heap_getattr(ptr noundef %0, i32 noundef %2, ptr noundef nonnull %1, ptr noundef nonnull %4)
  %14 = load i8, ptr %4, align 1, !range !4, !noundef !5
  %15 = trunc nuw i8 %14 to i1
  br i1 %15, label %33, label %16

16:                                               ; preds = %12
  %17 = icmp sgt i32 %2, 0
  br i1 %17, label %18, label %27

18:                                               ; preds = %16
  %19 = load i32, ptr %1, align 8
  %20 = sext i32 %19 to i64
  %21 = shl nsw i64 %20, 4
  %22 = getelementptr i8, ptr %1, i64 %21
  %23 = getelementptr i8, ptr %22, i64 24
  %24 = zext nneg i32 %2 to i64
  %25 = getelementptr %struct.FormData_pg_attribute, ptr %23, i64 %24
  %26 = getelementptr i8, ptr %25, i64 -100
  br label %30

27:                                               ; preds = %16
  %28 = trunc i32 %2 to i16
  %29 = call ptr @SystemAttributeDefinition(i16 noundef signext %28) #15
  br label %30

30:                                               ; preds = %27, %18
  %.pn = phi ptr [ %26, %18 ], [ %29, %27 ]
  %.0.in = getelementptr inbounds nuw i8, ptr %.pn, i64 68
  %.0 = load i32, ptr %.0.in, align 4
  call void @getTypeOutputInfo(i32 noundef %.0, ptr noundef nonnull %5, ptr noundef nonnull %6) #15
  %31 = load i32, ptr %5, align 4
  %32 = call ptr @OidOutputFunctionCall(i32 noundef %31, i64 noundef %13) #15
  br label %33

33:                                               ; preds = %12, %30, %11
  %.016 = phi ptr [ null, %11 ], [ %32, %30 ], [ null, %12 ]
  call void @llvm.lifetime.end.p0(i64 1, ptr nonnull %6) #15
  call void @llvm.lifetime.end.p0(i64 4, ptr nonnull %5) #15
  call void @llvm.lifetime.end.p0(i64 1, ptr nonnull %4) #15
  ret ptr %.016
}